target datalayout = "e-m:e-p270:32:32-p271:32:32-p272:64:64-i64:64-i128:128-f80:128-n8:16:32:64-S128"
target triple = "x86_64-pc-linux-gnu"

%struct.H5D_chk_idx_info_t = type { ptr, ptr, ptr, ptr }
%struct.H5D_chunk_ud_t = type { %struct.H5D_chunk_common_ud_t, i32, %struct.H5F_block_t, i32, i8, i64 }
%struct.H5D_chunk_common_ud_t = type { ptr, ptr, ptr }
%struct.H5F_block_t = type { i64, i64 }

@.str.2 = private unnamed_addr constant [103 x i8] c"generated/home/dtcxzyw/WorkSpace/Projects/compilers/llvm-opt-benchmark/bench/hdf5/hdf5/src/H5Dfarray.c\00", align 1
@H5E_DATASET_g = external global i64, align 8
@H5E_CANTGET_g = external global i64, align 8
@__func__.H5D__farray_idx_load_metadata = private unnamed_addr constant [30 x i8] c"H5D__farray_idx_load_metadata\00", align 1
@.str.28 = private unnamed_addr constant [34 x i8] c"can't load fixed array data block\00", align 1

; Function Attrs: nounwind uwtable
define internal i32 @H5D__farray_idx_load_metadata(ptr noundef %0) #0 {
  %2 = alloca ptr, align 8
  %3 = alloca %struct.H5D_chunk_ud_t, align 8
  %4 = alloca [33 x i64], align 16
  %5 = alloca i32, align 4
  %6 = alloca i8, align 1
  store ptr %0, ptr %2, align 8
  call void @llvm.memset.p0.i64(ptr align 16 %4, i8 0, i64 264, i1 false)
  store i32 0, ptr %5, align 4
  store i8 0, ptr %6, align 1
  %7 = load ptr, ptr %2, align 8
  %8 = getelementptr inbounds %struct.H5D_chk_idx_info_t, ptr %7, i32 0, i32 2
  %9 = load ptr, ptr %8, align 8
  %10 = getelementptr inbounds %struct.H5D_chunk_ud_t, ptr %3, i32 0, i32 0
  %11 = getelementptr inbounds %struct.H5D_chunk_common_ud_t, ptr %10, i32 0, i32 0
  store ptr %9, ptr %11, align 8
  %12 = load ptr, ptr %2, align 8
  %13 = getelementptr inbounds %struct.H5D_chk_idx_info_t, ptr %12, i32 0, i32 3
  %14 = load ptr, ptr %13, align 8
  %15 = getelementptr inbounds %struct.H5D_chunk_ud_t, ptr %3, i32 0, i32 0
  %16 = getelementptr inbounds %struct.H5D_chunk_common_ud_t, ptr %15, i32 0, i32 1
  store ptr %14, ptr %16, align 8
  %17 = getelementptr inbounds [33 x i64], ptr %4, i64 0, i64 0
  %18 = getelementptr inbounds %struct.H5D_chunk_ud_t, ptr %3, i32 0, i32 0
  %19 = getelementptr inbounds %struct.H5D_chunk_common_ud_t, ptr %18, i32 0, i32 2
  store ptr %17, ptr %19, align 8
  %20 = getelementptr inbounds %struct.H5D_chunk_ud_t, ptr %3, i32 0, i32 2
  %21 = getelementptr inbounds %struct.H5F_block_t, ptr %20, i32 0, i32 0
  store i64 -1, ptr %21, align 8
  %22 = getelementptr inbounds %struct.H5D_chunk_ud_t, ptr %3, i32 0, i32 2
  %23 = getelementptr inbounds %struct.H5F_block_t, ptr %22, i32 0, i32 1
  store i64 0, ptr %23, align 8
  %24 = getelementptr inbounds %struct.H5D_chunk_ud_t, ptr %3, i32 0, i32 3
  store i32 0, ptr %24, align 8
  %25 = getelementptr inbounds %struct.H5D_chunk_ud_t, ptr %3, i32 0, i32 4
  store i8 0, ptr %25, align 4
  %26 = getelementptr inbounds %struct.H5D_chunk_ud_t, ptr %3, i32 0, i32 1
  store i32 -1, ptr %26, align 8
  %27 = load ptr, ptr %2, align 8
  %28 = call i32 @H5D__farray_idx_get_addr(ptr noundef %27, ptr noundef %3)
  %29 = icmp slt i32 %28, 0
  br i1 %29, label %30, label %45

30:                                               ; preds = %1
  br label %31

31:                                               ; preds = %30
  br label %32

32:                                               ; preds = %31
  br label %33

33:                                               ; preds = %32
  %34 = load i64, ptr @H5E_DATASET_g, align 8
  %35 = load i64, ptr @H5E_CANTGET_g, align 8
  %36 = call i32 (ptr, ptr, i32, i64, i64, ptr, ...) @H5E_printf_stack(ptr noundef @.str.2, ptr noundef @__func__.H5D__farray_idx_load_metadata, i32 noundef 1120, i64 noundef %34, i64 noundef %35, ptr noundef @.str.28)
  br label %37

37:                                               ; preds = %33
  store i8 1, ptr %6, align 1
  %38 = load i8, ptr %6, align 1
  %39 = trunc i8 %38 to i1
  %40 = zext i1 %39 to i8
  store i8 %40, ptr %6, align 1
  br label %41

41:                                               ; preds = %37
  br label %42

42:                                               ; preds = %41
  store i32 -1, ptr %5, align 4
  br label %46

43:                                               ; No predecessors!
  br label %44

44:                                               ; preds = %43
  br label %45

45:                                               ; preds = %44, %1
  br label %46

46:                                               ; preds = %45, %42
  %47 = load i32, ptr %5, align 4
  ret i32 %47
}