; Function Attrs: nounwind uwtable
define internal range(i32 -1, 1) i32 @H5D__farray_idx_load_metadata(ptr nocapture noundef readonly %0) #1 {
  %2 = alloca %struct.H5D_chunk_ud_t, align 16
  %3 = alloca [33 x i64], align 16
  call void @llvm.memset.p0.i64(ptr noundef nonnull align 16 dereferenceable(264) %3, i8 0, i64 264, i1 false)
  %4 = getelementptr inbounds i8, ptr %0, i64 16
  %5 = load <2 x ptr>, ptr %4, align 8
  store <2 x ptr> %5, ptr %2, align 16
  %6 = getelementptr inbounds i8, ptr %2, i64 16
  store ptr %3, ptr %6, align 16
  %7 = getelementptr inbounds i8, ptr %2, i64 32
  store i64 -1, ptr %7, align 16
  %8 = getelementptr inbounds i8, ptr %2, i64 40
  store i64 0, ptr %8, align 8
  %9 = getelementptr inbounds i8, ptr %2, i64 48
  store i32 0, ptr %9, align 16
  %10 = getelementptr inbounds i8, ptr %2, i64 52
  store i8 0, ptr %10, align 4
  %11 = getelementptr inbounds i8, ptr %2, i64 24
  store i32 -1, ptr %11, align 8
  %12 = call i32 @H5D__farray_idx_get_addr(ptr noundef %0, ptr noundef nonnull %2)
  %13 = icmp slt i32 %12, 0
  br i1 %13, label %14, label %18

14:                                               ; preds = %1
  %15 = load i64, ptr @H5E_DATASET_g, align 8
  %16 = load i64, ptr @H5E_CANTGET_g, align 8
  %17 = call i32 (ptr, ptr, i32, i64, i64, ptr, ...) @H5E_printf_stack(ptr noundef nonnull @.str.2, ptr noundef nonnull @__func__.H5D__farray_idx_load_metadata, i32 noundef 1120, i64 noundef %15, i64 noundef %16, ptr noundef nonnull @.str.28) #11
  br label %18

18:                                               ; preds = %1, %14
  %.0 = phi i32 [ -1, %14 ], [ 0, %1 ]
  ret i32 %.0
}